target datalayout = "e-m:e-p270:32:32-p271:32:32-p272:64:64-i64:64-i128:128-f80:128-n8:16:32:64-S128"
target triple = "x86_64-pc-linux-gnu"

%struct.ScanTable = type { ptr, [64 x i8], [64 x i8] }
%struct.MpegEncContext = type { ptr, i32, i32, i32, [12 x i32], i32, %struct.ScanTable, %struct.ScanTable, [64 x i8], [64 x i8], ptr, ptr, i32, i32, i32, i32, i32, i32, i32, i32, i32, i32, i32, i32, i32, i32, i32, i32, i32, i32, i32, i32, i64, i64, ptr, %struct.BufferPoolContext, i32, i32, %union.anon, i32, %struct.MPVWorkPicture, %struct.MPVWorkPicture, %struct.MPVWorkPicture, i32, [3 x i32], ptr, [3 x ptr], ptr, ptr, ptr, ptr, ptr, ptr, [3 x ptr], i32, ptr, ptr, ptr, ptr, %struct.ScratchpadContext, i32, i32, i32, i32, i32, i32, %struct.BlockDSPContext, %struct.H264ChromaContext, %struct.HpelDSPContext, %struct.IDCTDSPContext, %struct.QpelDSPContext, %struct.VideoDSPContext, %struct.H263DSPContext, ptr, [2 x [2 x ptr]], i32, i32, [2 x [4 x [2 x i32]]], [2 x [2 x i32]], [2 x [2 x [2 x i32]]], [2 x [64 x i16]], i32, i32, i32, i32, i32, [6 x i32], [6 x i32], [3 x ptr], ptr, [64 x i16], [64 x i16], [64 x i16], [64 x i16], i32, i32, %struct.GetBitContext, i32, i32, i32, i32, i32, i32, i32, i32, i32, i32, i32, i32, i32, i32, i32, i64, i64, i16, i16, i16, i16, i32, i32, i32, i32, i32, i32, i32, i32, i32, [3 x i32], i32, i32, i32, i32, i32, i32, %struct.GetBitContext, i32, [2 x [2 x i32]], i32, i32, i32, i32, i32, i32, i32, i32, i32, i32, i32, i32, i32, i32, [2 x i32], i32, i32, ptr, ptr, ptr, ptr, ptr, i32, i32, %struct.ERContext }
%struct.BufferPoolContext = type { ptr, ptr, ptr, ptr, ptr, i32, i32, i32 }
%union.anon = type { [32 x ptr] }
%struct.MPVWorkPicture = type { [3 x ptr], [3 x i64], ptr, ptr, [2 x ptr], ptr, ptr, [2 x ptr], i32 }
%struct.ScratchpadContext = type { ptr, ptr, %union.anon.0, i32 }
%union.anon.0 = type { ptr }
%struct.BlockDSPContext = type { ptr, ptr, [2 x ptr] }
%struct.H264ChromaContext = type { [4 x ptr], [4 x ptr] }
%struct.HpelDSPContext = type { [4 x [4 x ptr]], [4 x [4 x ptr]], [4 x [4 x ptr]], [4 x ptr] }
%struct.IDCTDSPContext = type { ptr, ptr, ptr, ptr, ptr, ptr, [64 x i8], i32, i32 }
%struct.QpelDSPContext = type { [2 x [16 x ptr]], [2 x [16 x ptr]], [2 x [16 x ptr]] }
%struct.VideoDSPContext = type { ptr, ptr }
%struct.H263DSPContext = type { ptr, ptr }
%struct.GetBitContext = type { ptr, ptr, i32, i32, i32 }
%struct.ERContext = type { ptr, ptr, i32, ptr, i32, i32, i32, i64, i64, i32, i32, ptr, ptr, [3 x ptr], ptr, ptr, [2 x [4 x [2 x i32]]], %struct.ERPicture, %struct.ERPicture, %struct.ERPicture, [2 x ptr], [2 x ptr], i16, i16, i32, i32, ptr, ptr }
%struct.ERPicture = type { ptr, ptr, ptr, [2 x ptr], [2 x ptr], ptr, i32 }

; Function Attrs: cold nounwind optsize uwtable
define void @ff_mpv_free_context_frame(ptr noundef %0) #0 {
  %2 = alloca ptr, align 8
  %3 = alloca i32, align 4
  %4 = alloca i32, align 4
  %5 = alloca i32, align 4
  store ptr %0, ptr %2, align 8, !tbaa !18
  %6 = load ptr, ptr %2, align 8, !tbaa !18
  call void @free_duplicate_contexts(ptr noundef %6) #8
  %7 = load ptr, ptr %2, align 8, !tbaa !18
  %8 = getelementptr inbounds nuw %struct.MpegEncContext, ptr %7, i32 0, i32 35
  call void @free_buffer_pools(ptr noundef %8) #8
  %9 = load ptr, ptr %2, align 8, !tbaa !18
  %10 = getelementptr inbounds nuw %struct.MpegEncContext, ptr %9, i32 0, i32 73
  call void @av_freep(ptr noundef %10)
  call void @llvm.lifetime.start.p0(i64 4, ptr %3) #7
  store i32 0, ptr %3, align 4, !tbaa !13
  br label %11

11:                                               ; preds = %33, %1
  %12 = load i32, ptr %3, align 4, !tbaa !13
  %13 = icmp slt i32 %12, 2
  br i1 %13, label %15, label %14

14:                                               ; preds = %11
  store i32 2, ptr %4, align 4
  call void @llvm.lifetime.end.p0(i64 4, ptr %3) #7
  br label %36

15:                                               ; preds = %11
  call void @llvm.lifetime.start.p0(i64 4, ptr %5) #7
  store i32 0, ptr %5, align 4, !tbaa !13
  br label %16

16:                                               ; preds = %29, %15
  %17 = load i32, ptr %5, align 4, !tbaa !13
  %18 = icmp slt i32 %17, 2
  br i1 %18, label %20, label %19

19:                                               ; preds = %16
  store i32 5, ptr %4, align 4
  call void @llvm.lifetime.end.p0(i64 4, ptr %5) #7
  br label %32

20:                                               ; preds = %16
  %21 = load ptr, ptr %2, align 8, !tbaa !18
  %22 = getelementptr inbounds nuw %struct.MpegEncContext, ptr %21, i32 0, i32 74
  %23 = load i32, ptr %3, align 4, !tbaa !13
  %24 = sext i32 %23 to i64
  %25 = getelementptr inbounds [2 x [2 x ptr]], ptr %22, i64 0, i64 %24
  %26 = load i32, ptr %5, align 4, !tbaa !13
  %27 = sext i32 %26 to i64
  %28 = getelementptr inbounds [2 x ptr], ptr %25, i64 0, i64 %27
  store ptr null, ptr %28, align 8, !tbaa !65
  br label %29

29:                                               ; preds = %20
  %30 = load i32, ptr %5, align 4, !tbaa !13
  %31 = add nsw i32 %30, 1
  store i32 %31, ptr %5, align 4, !tbaa !13
  br label %16, !llvm.loop !132

32:                                               ; preds = %19
  br label %33

33:                                               ; preds = %32
  %34 = load i32, ptr %3, align 4, !tbaa !13
  %35 = add nsw i32 %34, 1
  store i32 %35, ptr %3, align 4, !tbaa !13
  br label %11, !llvm.loop !133

36:                                               ; preds = %14
  %37 = load ptr, ptr %2, align 8, !tbaa !18
  %38 = getelementptr inbounds nuw %struct.MpegEncContext, ptr %37, i32 0, i32 45
  call void @av_freep(ptr noundef %38)
  %39 = load ptr, ptr %2, align 8, !tbaa !18
  %40 = getelementptr inbounds nuw %struct.MpegEncContext, ptr %39, i32 0, i32 50
  call void @av_freep(ptr noundef %40)
  %41 = load ptr, ptr %2, align 8, !tbaa !18
  %42 = getelementptr inbounds nuw %struct.MpegEncContext, ptr %41, i32 0, i32 56
  call void @av_freep(ptr noundef %42)
  %43 = load ptr, ptr %2, align 8, !tbaa !18
  %44 = getelementptr inbounds nuw %struct.MpegEncContext, ptr %43, i32 0, i32 57
  call void @av_freep(ptr noundef %44)
  %45 = load ptr, ptr %2, align 8, !tbaa !18
  %46 = getelementptr inbounds nuw %struct.MpegEncContext, ptr %45, i32 0, i32 58
  call void @av_freep(ptr noundef %46)
  %47 = load ptr, ptr %2, align 8, !tbaa !18
  %48 = getelementptr inbounds nuw %struct.MpegEncContext, ptr %47, i32 0, i32 55
  call void @av_freep(ptr noundef %48)
  %49 = load ptr, ptr %2, align 8, !tbaa !18
  %50 = getelementptr inbounds nuw %struct.MpegEncContext, ptr %49, i32 0, i32 161
  %51 = getelementptr inbounds nuw %struct.ERContext, ptr %50, i32 0, i32 11
  call void @av_freep(ptr noundef %51)
  %52 = load ptr, ptr %2, align 8, !tbaa !18
  %53 = getelementptr inbounds nuw %struct.MpegEncContext, ptr %52, i32 0, i32 161
  %54 = getelementptr inbounds nuw %struct.ERContext, ptr %53, i32 0, i32 12
  call void @av_freep(ptr noundef %54)
  %55 = load ptr, ptr %2, align 8, !tbaa !18
  %56 = getelementptr inbounds nuw %struct.MpegEncContext, ptr %55, i32 0, i32 89
  call void @av_freep(ptr noundef %56)
  %57 = load ptr, ptr %2, align 8, !tbaa !18
  %58 = getelementptr inbounds nuw %struct.MpegEncContext, ptr %57, i32 0, i32 33
  store i64 0, ptr %58, align 8, !tbaa !131
  %59 = load ptr, ptr %2, align 8, !tbaa !18
  %60 = getelementptr inbounds nuw %struct.MpegEncContext, ptr %59, i32 0, i32 32
  store i64 0, ptr %60, align 8, !tbaa !66
  ret void
}