; Function Attrs: cold nounwind optsize uwtable
define void @ff_mpv_free_context_frame(ptr noundef %0) local_unnamed_addr #2 {
  tail call fastcc void @free_duplicate_contexts(ptr noundef %0) #13
  %2 = getelementptr inbounds nuw i8, ptr %0, i64 592
  tail call fastcc void @free_buffer_pools(ptr noundef nonnull %2) #13
  %3 = getelementptr inbounds nuw i8, ptr %0, i64 2928
  tail call void @av_freep(ptr noundef nonnull %3) #12
  %scevgep24 = getelementptr i8, ptr %0, i64 2936
  tail call void @llvm.memset.p0.i64(ptr noundef nonnull align 8 dereferenceable(32) %scevgep24, i8 0, i64 32, i1 false), !tbaa !58
  %4 = getelementptr inbounds nuw i8, ptr %0, i64 1296
  tail call void @av_freep(ptr noundef nonnull %4) #12
  %5 = getelementptr inbounds nuw i8, ptr %0, i64 1352
  tail call void @av_freep(ptr noundef nonnull %5) #12
  %6 = getelementptr inbounds nuw i8, ptr %0, i64 1416
  tail call void @av_freep(ptr noundef nonnull %6) #12
  %7 = getelementptr inbounds nuw i8, ptr %0, i64 1424
  tail call void @av_freep(ptr noundef nonnull %7) #12
  %8 = getelementptr inbounds nuw i8, ptr %0, i64 1432
  tail call void @av_freep(ptr noundef nonnull %8) #12
  %9 = getelementptr inbounds nuw i8, ptr %0, i64 1408
  tail call void @av_freep(ptr noundef nonnull %9) #12
  %10 = getelementptr inbounds nuw i8, ptr %0, i64 4408
  tail call void @av_freep(ptr noundef nonnull %10) #12
  %11 = getelementptr inbounds nuw i8, ptr %0, i64 4416
  tail call void @av_freep(ptr noundef nonnull %11) #12
  %12 = getelementptr inbounds nuw i8, ptr %0, i64 3440
  tail call void @av_freep(ptr noundef nonnull %12) #12
  %13 = getelementptr inbounds nuw i8, ptr %0, i64 568
  tail call void @llvm.memset.p0.i64(ptr noundef nonnull align 8 dereferenceable(16) %13, i8 0, i64 16, i1 false)
  ret void
}